; Function Attrs: mustprogress uwtable
define noundef ptr @_ZN6Assimp16ArmaturePopulate15GetArmatureRootEP6aiNodeRSt6vectorIP6aiBoneSaIS5_EE(ptr noundef %0, ptr noundef nonnull readonly align 8 captures(none) dereferenceable(24) %1) local_unnamed_addr #1 align 2 {
  %3 = alloca ptr, align 8
  %.not15 = icmp eq ptr %0, null
  br i1 %.not15, label %._crit_edge, label %.lr.ph

.lr.ph:                                           ; preds = %2
  %.val = load ptr, ptr %1, align 8
  %4 = getelementptr inbounds nuw i8, ptr %1, i64 8
  %.val8 = load ptr, ptr %4, align 8
  %.not5.not.i = icmp eq ptr %.val, %.val8
  br i1 %.not5.not.i, label %.loopexit, label %.lr.ph.i

.lr.ph.i:                                         ; preds = %.lr.ph, %_ZN6AssimpL10IsBoneNodeERK8aiStringRSt6vectorIP6aiBoneSaIS5_EE.exit
  %.0716 = phi ptr [ %18, %_ZN6AssimpL10IsBoneNodeERK8aiStringRSt6vectorIP6aiBoneSaIS5_EE.exit ], [ %0, %.lr.ph ]
  %5 = load i32, ptr %.0716, align 4
  %6 = getelementptr inbounds nuw i8, ptr %.0716, i64 4
  %7 = zext i32 %5 to i64
  br label %8

8:                                                ; preds = %_ZNK8aiStringeqERKS_.exit.thread.i, %.lr.ph.i
  %.sroa.01.06.i = phi ptr [ %.val, %.lr.ph.i ], [ %14, %_ZNK8aiStringeqERKS_.exit.thread.i ]
  %9 = load ptr, ptr %.sroa.01.06.i, align 8
  %10 = load i32, ptr %9, align 4
  %11 = icmp eq i32 %10, %5
  br i1 %11, label %_ZNK8aiStringeqERKS_.exit.i, label %_ZNK8aiStringeqERKS_.exit.thread.i

_ZNK8aiStringeqERKS_.exit.i:                      ; preds = %8
  %12 = getelementptr inbounds nuw i8, ptr %9, i64 4
  %bcmp.i.i = tail call i32 @bcmp(ptr nonnull %12, ptr nonnull readonly %6, i64 %7)
  %13 = icmp eq i32 %bcmp.i.i, 0
  br i1 %13, label %_ZN6AssimpL10IsBoneNodeERK8aiStringRSt6vectorIP6aiBoneSaIS5_EE.exit, label %_ZNK8aiStringeqERKS_.exit.thread.i

_ZNK8aiStringeqERKS_.exit.thread.i:               ; preds = %_ZNK8aiStringeqERKS_.exit.i, %8
  %14 = getelementptr inbounds nuw i8, ptr %.sroa.01.06.i, i64 8
  %.not.not.i = icmp eq ptr %14, %.val8
  br i1 %.not.not.i, label %.loopexit, label %8

.loopexit:                                        ; preds = %_ZNK8aiStringeqERKS_.exit.thread.i, %.lr.ph
  %.0714 = phi ptr [ %0, %.lr.ph ], [ %.0716, %_ZNK8aiStringeqERKS_.exit.thread.i ]
  %15 = tail call noundef ptr @_ZN6Assimp13DefaultLogger3getEv()
  call void @llvm.lifetime.start.p0(i64 8, ptr nonnull %3) #20
  %16 = getelementptr inbounds nuw i8, ptr %.0714, i64 4
  store ptr %16, ptr %3, align 8
  call void @_ZN6Assimp6Logger12verboseDebugIJRA41_KcPS2_EEEvDpOT_(ptr noundef nonnull align 8 dereferenceable(12) %15, ptr noundef nonnull align 1 dereferenceable(41) @.str.6, ptr noundef nonnull align 8 dereferenceable(8) %3)
  call void @llvm.lifetime.end.p0(i64 8, ptr nonnull %3) #20
  br label %20

_ZN6AssimpL10IsBoneNodeERK8aiStringRSt6vectorIP6aiBoneSaIS5_EE.exit: ; preds = %_ZNK8aiStringeqERKS_.exit.i
  %17 = getelementptr inbounds nuw i8, ptr %.0716, i64 1096
  %18 = load ptr, ptr %17, align 8
  %.not = icmp eq ptr %18, null
  br i1 %.not, label %._crit_edge, label %.lr.ph.i, !llvm.loop !3

._crit_edge:                                      ; preds = %_ZN6AssimpL10IsBoneNodeERK8aiStringRSt6vectorIP6aiBoneSaIS5_EE.exit, %2
  %19 = tail call noundef ptr @_ZN6Assimp13DefaultLogger3getEv()
  tail call void @_ZN6Assimp6Logger5errorEPKc(ptr noundef nonnull align 8 dereferenceable(12) %19, ptr noundef nonnull @.str.7)
  br label %20

20:                                               ; preds = %._crit_edge, %.loopexit
  %.0713 = phi ptr [ null, %._crit_edge ], [ %.0714, %.loopexit ]
  ret ptr %.0713
}